target datalayout = "e-m:e-p270:32:32-p271:32:32-p272:64:64-i64:64-i128:128-f80:128-n8:16:32:64-S128"
target triple = "x86_64-pc-linux-gnu"

; Function Attrs: mustprogress nounwind uwtable
define hidden noundef ptr @_ZN6google8protobuf17FastInt64ToBufferElPc(i64 noundef %0, ptr noundef %1) #6 {
  %3 = alloca ptr, align 8
  %4 = alloca i64, align 8
  %5 = alloca ptr, align 8
  %6 = alloca ptr, align 8
  %7 = alloca i32, align 4
  store i64 %0, ptr %4, align 8, !tbaa !13
  store ptr %1, ptr %5, align 8, !tbaa !8
  call void @llvm.lifetime.start.p0(i64 8, ptr %6) #3
  %8 = load ptr, ptr %5, align 8, !tbaa !8
  %9 = getelementptr inbounds i8, ptr %8, i64 21
  store ptr %9, ptr %6, align 8, !tbaa !8
  %10 = load ptr, ptr %6, align 8, !tbaa !8
  %11 = getelementptr inbounds i8, ptr %10, i32 -1
  store ptr %11, ptr %6, align 8, !tbaa !8
  store i8 0, ptr %10, align 1, !tbaa !10
  %12 = load i64, ptr %4, align 8, !tbaa !13
  %13 = icmp sge i64 %12, 0
  br i1 %13, label %14, label %30

14:                                               ; preds = %2
  br label %15

15:                                               ; preds = %24, %14
  %16 = load i64, ptr %4, align 8, !tbaa !13
  %17 = srem i64 %16, 10
  %18 = add nsw i64 48, %17
  %19 = trunc i64 %18 to i8
  %20 = load ptr, ptr %6, align 8, !tbaa !8
  %21 = getelementptr inbounds i8, ptr %20, i32 -1
  store ptr %21, ptr %6, align 8, !tbaa !8
  store i8 %19, ptr %20, align 1, !tbaa !10
  %22 = load i64, ptr %4, align 8, !tbaa !13
  %23 = sdiv i64 %22, 10
  store i64 %23, ptr %4, align 8, !tbaa !13
  br label %24

24:                                               ; preds = %15
  %25 = load i64, ptr %4, align 8, !tbaa !13
  %26 = icmp sgt i64 %25, 0
  br i1 %26, label %15, label %27, !llvm.loop !64

27:                                               ; preds = %24
  %28 = load ptr, ptr %6, align 8, !tbaa !8
  %29 = getelementptr inbounds i8, ptr %28, i64 1
  store ptr %29, ptr %3, align 8
  store i32 1, ptr %7, align 4
  br label %72

30:                                               ; preds = %2
  %31 = load i64, ptr %4, align 8, !tbaa !13
  %32 = icmp sgt i64 %31, -10
  br i1 %32, label %33, label %43

33:                                               ; preds = %30
  %34 = load i64, ptr %4, align 8, !tbaa !13
  %35 = sub nsw i64 0, %34
  store i64 %35, ptr %4, align 8, !tbaa !13
  %36 = load i64, ptr %4, align 8, !tbaa !13
  %37 = add nsw i64 48, %36
  %38 = trunc i64 %37 to i8
  %39 = load ptr, ptr %6, align 8, !tbaa !8
  %40 = getelementptr inbounds i8, ptr %39, i32 -1
  store ptr %40, ptr %6, align 8, !tbaa !8
  store i8 %38, ptr %39, align 1, !tbaa !10
  %41 = load ptr, ptr %6, align 8, !tbaa !8
  store i8 45, ptr %41, align 1, !tbaa !10
  %42 = load ptr, ptr %6, align 8, !tbaa !8
  store ptr %42, ptr %3, align 8
  store i32 1, ptr %7, align 4
  br label %72

43:                                               ; preds = %30
  %44 = load i64, ptr %4, align 8, !tbaa !13
  %45 = add nsw i64 %44, 10
  store i64 %45, ptr %4, align 8, !tbaa !13
  %46 = load i64, ptr %4, align 8, !tbaa !13
  %47 = sub nsw i64 0, %46
  store i64 %47, ptr %4, align 8, !tbaa !13
  %48 = load i64, ptr %4, align 8, !tbaa !13
  %49 = srem i64 %48, 10
  %50 = add nsw i64 48, %49
  %51 = trunc i64 %50 to i8
  %52 = load ptr, ptr %6, align 8, !tbaa !8
  %53 = getelementptr inbounds i8, ptr %52, i32 -1
  store ptr %53, ptr %6, align 8, !tbaa !8
  store i8 %51, ptr %52, align 1, !tbaa !10
  %54 = load i64, ptr %4, align 8, !tbaa !13
  %55 = sdiv i64 %54, 10
  %56 = add nsw i64 %55, 1
  store i64 %56, ptr %4, align 8, !tbaa !13
  br label %57

57:                                               ; preds = %66, %43
  %58 = load i64, ptr %4, align 8, !tbaa !13
  %59 = srem i64 %58, 10
  %60 = add nsw i64 48, %59
  %61 = trunc i64 %60 to i8
  %62 = load ptr, ptr %6, align 8, !tbaa !8
  %63 = getelementptr inbounds i8, ptr %62, i32 -1
  store ptr %63, ptr %6, align 8, !tbaa !8
  store i8 %61, ptr %62, align 1, !tbaa !10
  %64 = load i64, ptr %4, align 8, !tbaa !13
  %65 = sdiv i64 %64, 10
  store i64 %65, ptr %4, align 8, !tbaa !13
  br label %66

66:                                               ; preds = %57
  %67 = load i64, ptr %4, align 8, !tbaa !13
  %68 = icmp sgt i64 %67, 0
  br i1 %68, label %57, label %69, !llvm.loop !65

69:                                               ; preds = %66
  %70 = load ptr, ptr %6, align 8, !tbaa !8
  store i8 45, ptr %70, align 1, !tbaa !10
  %71 = load ptr, ptr %6, align 8, !tbaa !8
  store ptr %71, ptr %3, align 8
  store i32 1, ptr %7, align 4
  br label %72

72:                                               ; preds = %69, %33, %27
  call void @llvm.lifetime.end.p0(i64 8, ptr %6) #3
  %73 = load ptr, ptr %3, align 8
  ret ptr %73
}